target datalayout = "e-m:e-p270:32:32-p271:32:32-p272:64:64-i64:64-i128:128-f80:128-n8:16:32:64-S128"
target triple = "x86_64-pc-linux-gnu"

%struct.wtap_opttype_t = type { ptr, ptr, i32, i32 }
%struct.wtap_block = type { ptr, ptr, ptr, i32 }
%struct.wtap_blocktype_t = type { i32, ptr, ptr, ptr, ptr, ptr, ptr }
%struct._GArray = type { ptr, i32 }
%struct.wtap_option_t = type { i32, %union.wtap_optval_t }
%union.wtap_optval_t = type { %struct.custom_opt_s }
%struct.custom_opt_s = type { i32, %union.anon.0 }
%union.anon.0 = type { %struct.nflx_custom_opt_data }
%struct.nflx_custom_opt_data = type { i32, i64, ptr, i8 }

; Function Attrs: null_pointer_is_valid sspstrong uwtable
define zeroext i1 @wtap_block_foreach_option(ptr noundef %0, ptr noundef %1, ptr noundef %2) #0 {
  %4 = alloca i1, align 1
  %5 = alloca ptr, align 8
  %6 = alloca ptr, align 8
  %7 = alloca ptr, align 8
  %8 = alloca i32, align 4
  %9 = alloca ptr, align 8
  %10 = alloca ptr, align 8
  %11 = alloca i32, align 4
  store ptr %0, ptr %5, align 8
  store ptr %1, ptr %6, align 8
  store ptr %2, ptr %7, align 8
  call void @llvm.lifetime.start.p0(i64 4, ptr %8) #15
  call void @llvm.lifetime.start.p0(i64 8, ptr %9) #15
  call void @llvm.lifetime.start.p0(i64 8, ptr %10) #15
  %12 = load ptr, ptr %5, align 8
  %13 = icmp eq ptr %12, null
  br i1 %13, label %14, label %15

14:                                               ; preds = %3
  store i1 true, ptr %4, align 1
  store i32 1, ptr %11, align 4
  br label %62

15:                                               ; preds = %3
  store i32 0, ptr %8, align 4
  br label %16

16:                                               ; preds = %58, %15
  %17 = load i32, ptr %8, align 4
  %18 = load ptr, ptr %5, align 8
  %19 = getelementptr inbounds nuw %struct.wtap_block, ptr %18, i32 0, i32 2
  %20 = load ptr, ptr %19, align 8
  %21 = getelementptr inbounds nuw %struct._GArray, ptr %20, i32 0, i32 1
  %22 = load i32, ptr %21, align 8
  %23 = icmp ult i32 %17, %22
  br i1 %23, label %24, label %61

24:                                               ; preds = %16
  %25 = load ptr, ptr %5, align 8
  %26 = getelementptr inbounds nuw %struct.wtap_block, ptr %25, i32 0, i32 2
  %27 = load ptr, ptr %26, align 8
  %28 = getelementptr inbounds nuw %struct._GArray, ptr %27, i32 0, i32 0
  %29 = load ptr, ptr %28, align 8
  %30 = load i32, ptr %8, align 4
  %31 = zext i32 %30 to i64
  %32 = getelementptr %struct.wtap_option_t, ptr %29, i64 %31
  store ptr %32, ptr %9, align 8
  %33 = load ptr, ptr %5, align 8
  %34 = getelementptr inbounds nuw %struct.wtap_block, ptr %33, i32 0, i32 0
  %35 = load ptr, ptr %34, align 8
  %36 = getelementptr inbounds nuw %struct.wtap_blocktype_t, ptr %35, i32 0, i32 6
  %37 = load ptr, ptr %36, align 8
  %38 = load ptr, ptr %9, align 8
  %39 = getelementptr inbounds nuw %struct.wtap_option_t, ptr %38, i32 0, i32 0
  %40 = load i32, ptr %39, align 8
  %41 = zext i32 %40 to i64
  %42 = inttoptr i64 %41 to ptr
  %43 = call ptr @g_hash_table_lookup(ptr noundef %37, ptr noundef %42)
  store ptr %43, ptr %10, align 8
  %44 = load ptr, ptr %6, align 8
  %45 = load ptr, ptr %5, align 8
  %46 = load ptr, ptr %9, align 8
  %47 = getelementptr inbounds nuw %struct.wtap_option_t, ptr %46, i32 0, i32 0
  %48 = load i32, ptr %47, align 8
  %49 = load ptr, ptr %10, align 8
  %50 = getelementptr inbounds nuw %struct.wtap_opttype_t, ptr %49, i32 0, i32 2
  %51 = load i32, ptr %50, align 8
  %52 = load ptr, ptr %9, align 8
  %53 = getelementptr inbounds nuw %struct.wtap_option_t, ptr %52, i32 0, i32 1
  %54 = load ptr, ptr %7, align 8
  %55 = call zeroext i1 %44(ptr noundef %45, i32 noundef %48, i32 noundef %51, ptr noundef %53, ptr noundef %54)
  br i1 %55, label %57, label %56

56:                                               ; preds = %24
  store i1 false, ptr %4, align 1
  store i32 1, ptr %11, align 4
  br label %62

57:                                               ; preds = %24
  br label %58

58:                                               ; preds = %57
  %59 = load i32, ptr %8, align 4
  %60 = add i32 %59, 1
  store i32 %60, ptr %8, align 4
  br label %16, !llvm.loop !13

61:                                               ; preds = %16
  store i1 true, ptr %4, align 1
  store i32 1, ptr %11, align 4
  br label %62

62:                                               ; preds = %61, %56, %14
  call void @llvm.lifetime.end.p0(i64 8, ptr %10) #15
  call void @llvm.lifetime.end.p0(i64 8, ptr %9) #15
  call void @llvm.lifetime.end.p0(i64 4, ptr %8) #15
  %63 = load i1, ptr %4, align 1
  ret i1 %63
}