; Function Attrs: null_pointer_is_valid sspstrong uwtable
define noundef zeroext i1 @wtap_block_foreach_option(ptr noundef %0, ptr noundef readonly captures(none) %1, ptr noundef %2) local_unnamed_addr #0 {
  %4 = icmp eq ptr %0, null
  br i1 %4, label %.loopexit, label %.preheader

.preheader:                                       ; preds = %3
  %5 = getelementptr inbounds nuw i8, ptr %0, i64 16
  %6 = load ptr, ptr %5, align 8
  %7 = getelementptr inbounds nuw i8, ptr %6, i64 8
  %8 = load i32, ptr %7, align 8
  %.not = icmp eq i32 %8, 0
  br i1 %.not, label %.loopexit, label %.lr.ph

9:                                                ; preds = %.lr.ph
  %indvars.iv.next = add nuw nsw i64 %indvars.iv, 1
  %10 = load ptr, ptr %5, align 8
  %11 = getelementptr inbounds nuw i8, ptr %10, i64 8
  %12 = load i32, ptr %11, align 8
  %13 = zext i32 %12 to i64
  %14 = icmp samesign ult i64 %indvars.iv.next, %13
  br i1 %14, label %.lr.ph, label %.loopexit, !llvm.loop !17

.lr.ph:                                           ; preds = %.preheader, %9
  %indvars.iv = phi i64 [ %indvars.iv.next, %9 ], [ 0, %.preheader ]
  %15 = phi ptr [ %10, %9 ], [ %6, %.preheader ]
  %16 = load ptr, ptr %15, align 8
  %17 = getelementptr %struct.wtap_option_t, ptr %16, i64 %indvars.iv
  %18 = load ptr, ptr %0, align 8
  %19 = getelementptr inbounds nuw i8, ptr %18, i64 48
  %20 = load ptr, ptr %19, align 8
  %21 = load i32, ptr %17, align 8
  %22 = zext i32 %21 to i64
  %23 = inttoptr i64 %22 to ptr
  %24 = tail call ptr @g_hash_table_lookup(ptr noundef %20, ptr noundef %23)
  %25 = load i32, ptr %17, align 8
  %26 = getelementptr inbounds nuw i8, ptr %24, i64 16
  %27 = load i32, ptr %26, align 8
  %28 = getelementptr inbounds nuw i8, ptr %17, i64 8
  %29 = tail call zeroext i1 %1(ptr noundef nonnull %0, i32 noundef %25, i32 noundef %27, ptr noundef nonnull %28, ptr noundef %2)
  br i1 %29, label %9, label %.loopexit

.loopexit:                                        ; preds = %.lr.ph, %9, %.preheader, %3
  %.0 = phi i1 [ true, %3 ], [ true, %.preheader ], [ %29, %9 ], [ %29, %.lr.ph ]
  ret i1 %.0
}